target datalayout = "e-m:e-p270:32:32-p271:32:32-p272:64:64-i64:64-i128:128-f80:128-n8:16:32:64-S128"
target triple = "x86_64-unknown-linux-gnu"

%struct.uffdio_range = type { i64, i64 }
%struct.PostCopyFD = type { i32, ptr, ptr, ptr, ptr }
%struct.timeval = type { i64, i64 }

@.str.10 = private unnamed_addr constant [35 x i8] c"%s: Failed to wake: %zx in %s (%s)\00", align 1
@__func__.postcopy_wake_shared = private unnamed_addr constant [21 x i8] c"postcopy_wake_shared\00", align 1
@trace_events_enabled_count = external global i32, align 4
@message_with_timestamp = external global i8, align 1
@qemu_loglevel = external global i32, align 4
@_TRACE_POSTCOPY_WAKE_SHARED_DSTATE = external global i16, align 2
@.str.48 = private unnamed_addr constant [50 x i8] c"%d@%zu.%06zu:postcopy_wake_shared at 0x%lx in %s\0A\00", align 1
@.str.49 = private unnamed_addr constant [37 x i8] c"postcopy_wake_shared at 0x%lx in %s\0A\00", align 1

; Function Attrs: nounwind sspstrong uwtable
define internal zeroext i1 @qemu_loglevel_mask(i32 noundef %mask) #0 {
entry:
  %mask.addr = alloca i32, align 4
  store i32 %mask, ptr %mask.addr, align 4
  %0 = load i32, ptr @qemu_loglevel, align 4
  %1 = load i32, ptr %mask.addr, align 4
  %and = and i32 %0, %1
  %cmp = icmp ne i32 %and, 0
  ret i1 %cmp
}

; Function Attrs: nounwind sspstrong uwtable
define internal void @_nocheck__trace_postcopy_wake_shared(i64 noundef %client_addr, ptr noundef %rb) #0 {
entry:
  %client_addr.addr = alloca i64, align 8
  %rb.addr = alloca ptr, align 8
  %_now = alloca %struct.timeval, align 8
  store i64 %client_addr, ptr %client_addr.addr, align 8
  store ptr %rb, ptr %rb.addr, align 8
  %0 = load i32, ptr @trace_events_enabled_count, align 4
  %tobool = icmp ne i32 %0, 0
  %lnot = xor i1 %tobool, true
  %lnot1 = xor i1 %lnot, true
  %lnot.ext = zext i1 %lnot1 to i32
  %conv = sext i32 %lnot.ext to i64
  %tobool2 = icmp ne i64 %conv, 0
  br i1 %tobool2, label %land.lhs.true, label %if.end11

land.lhs.true:                                    ; preds = %entry
  %1 = load i16, ptr @_TRACE_POSTCOPY_WAKE_SHARED_DSTATE, align 2
  %conv3 = zext i16 %1 to i32
  %tobool4 = icmp ne i32 %conv3, 0
  br i1 %tobool4, label %land.lhs.true5, label %if.end11

land.lhs.true5:                                   ; preds = %land.lhs.true
  %call = call zeroext i1 @qemu_loglevel_mask(i32 noundef 32768)
  br i1 %call, label %if.then, label %if.end11

if.then:                                          ; preds = %land.lhs.true5
  %2 = load i8, ptr @message_with_timestamp, align 1
  %tobool7 = trunc i8 %2 to i1
  br i1 %tobool7, label %if.then8, label %if.else

if.then8:                                         ; preds = %if.then
  %call9 = call i32 @gettimeofday(ptr noundef %_now, ptr noundef null) #11
  %call10 = call i32 @qemu_get_thread_id()
  %tv_sec = getelementptr inbounds %struct.timeval, ptr %_now, i32 0, i32 0
  %3 = load i64, ptr %tv_sec, align 8
  %tv_usec = getelementptr inbounds %struct.timeval, ptr %_now, i32 0, i32 1
  %4 = load i64, ptr %tv_usec, align 8
  %5 = load i64, ptr %client_addr.addr, align 8
  %6 = load ptr, ptr %rb.addr, align 8
  call void (ptr, ...) @qemu_log(ptr noundef @.str.48, i32 noundef %call10, i64 noundef %3, i64 noundef %4, i64 noundef %5, ptr noundef %6)
  br label %if.end

if.else:                                          ; preds = %if.then
  %7 = load i64, ptr %client_addr.addr, align 8
  %8 = load ptr, ptr %rb.addr, align 8
  call void (ptr, ...) @qemu_log(ptr noundef @.str.49, i64 noundef %7, ptr noundef %8)
  br label %if.end

if.end:                                           ; preds = %if.else, %if.then8
  br label %if.end11

if.end11:                                         ; preds = %if.end, %land.lhs.true5, %land.lhs.true, %entry
  ret void
}

; Function Attrs: nounwind sspstrong uwtable
define internal void @trace_postcopy_wake_shared(i64 noundef %client_addr, ptr noundef %rb) #0 {
entry:
  %client_addr.addr = alloca i64, align 8
  %rb.addr = alloca ptr, align 8
  store i64 %client_addr, ptr %client_addr.addr, align 8
  store ptr %rb, ptr %rb.addr, align 8
  %0 = load i64, ptr %client_addr.addr, align 8
  %1 = load ptr, ptr %rb.addr, align 8
  call void @_nocheck__trace_postcopy_wake_shared(i64 noundef %0, ptr noundef %1)
  ret void
}

; Function Attrs: nounwind sspstrong uwtable
define dso_local i32 @postcopy_wake_shared(ptr noundef %pcfd, i64 noundef %client_addr, ptr noundef %rb) #0 {
entry:
  %pcfd.addr = alloca ptr, align 8
  %client_addr.addr = alloca i64, align 8
  %rb.addr = alloca ptr, align 8
  %pagesize = alloca i64, align 8
  %range = alloca %struct.uffdio_range, align 8
  %ret = alloca i32, align 4
  store ptr %pcfd, ptr %pcfd.addr, align 8
  store i64 %client_addr, ptr %client_addr.addr, align 8
  store ptr %rb, ptr %rb.addr, align 8
  %0 = load ptr, ptr %rb.addr, align 8
  %call = call i64 @qemu_ram_pagesize(ptr noundef %0)
  store i64 %call, ptr %pagesize, align 8
  %1 = load i64, ptr %client_addr.addr, align 8
  %2 = load ptr, ptr %rb.addr, align 8
  %call1 = call ptr @qemu_ram_get_idstr(ptr noundef %2)
  call void @trace_postcopy_wake_shared(i64 noundef %1, ptr noundef %call1)
  %3 = load i64, ptr %client_addr.addr, align 8
  %4 = load i64, ptr %pagesize, align 8
  %sub = sub i64 0, %4
  %and = and i64 %3, %sub
  %start = getelementptr inbounds %struct.uffdio_range, ptr %range, i32 0, i32 0
  store i64 %and, ptr %start, align 8
  %5 = load i64, ptr %pagesize, align 8
  %len = getelementptr inbounds %struct.uffdio_range, ptr %range, i32 0, i32 1
  store i64 %5, ptr %len, align 8
  %6 = load ptr, ptr %pcfd.addr, align 8
  %fd = getelementptr inbounds %struct.PostCopyFD, ptr %6, i32 0, i32 0
  %7 = load i32, ptr %fd, align 8
  %call2 = call i32 (i32, i64, ...) @ioctl(i32 noundef %7, i64 noundef 2148575746, ptr noundef %range) #11
  store i32 %call2, ptr %ret, align 4
  %8 = load i32, ptr %ret, align 4
  %tobool = icmp ne i32 %8, 0
  br i1 %tobool, label %if.then, label %if.end

if.then:                                          ; preds = %entry
  %9 = load i64, ptr %client_addr.addr, align 8
  %10 = load ptr, ptr %rb.addr, align 8
  %call3 = call ptr @qemu_ram_get_idstr(ptr noundef %10)
  %call4 = call ptr @__errno_location() #10
  %11 = load i32, ptr %call4, align 4
  %call5 = call ptr @strerror(i32 noundef %11) #11
  call void (ptr, ...) @error_report(ptr noundef @.str.10, ptr noundef @__func__.postcopy_wake_shared, i64 noundef %9, ptr noundef %call3, ptr noundef %call5)
  br label %if.end

if.end:                                           ; preds = %if.then, %entry
  %12 = load i32, ptr %ret, align 4
  ret i32 %12
}