; Function Attrs: nounwind sspstrong uwtable
define dso_local i32 @postcopy_wake_shared(ptr noundef readonly captures(none) %pcfd, i64 noundef %client_addr, ptr noundef %rb) local_unnamed_addr #0 {
entry:
  %_now.i.i = alloca %struct.timeval, align 8
  %range = alloca %struct.uffdio_range, align 8
  %call = tail call i64 @qemu_ram_pagesize(ptr noundef %rb) #16
  %call1 = tail call ptr @qemu_ram_get_idstr(ptr noundef %rb) #16
  call void @llvm.lifetime.start.p0(i64 16, ptr nonnull %_now.i.i)
  %0 = load i32, ptr @trace_events_enabled_count, align 4
  %tobool.i.i = icmp ne i32 %0, 0
  %1 = load i16, ptr @_TRACE_POSTCOPY_WAKE_SHARED_DSTATE, align 2
  %tobool4.i.i = icmp ne i16 %1, 0
  %or.cond.i.i = select i1 %tobool.i.i, i1 %tobool4.i.i, i1 false
  br i1 %or.cond.i.i, label %land.lhs.true5.i.i, label %trace_postcopy_wake_shared.exit

land.lhs.true5.i.i:                               ; preds = %entry
  %2 = load i32, ptr @qemu_loglevel, align 4
  %and.i.i.i = and i32 %2, 32768
  %cmp.i.not.i.i = icmp eq i32 %and.i.i.i, 0
  br i1 %cmp.i.not.i.i, label %trace_postcopy_wake_shared.exit, label %if.then.i.i

if.then.i.i:                                      ; preds = %land.lhs.true5.i.i
  %3 = load i8, ptr @message_with_timestamp, align 1
  %tobool7.i.i = trunc i8 %3 to i1
  br i1 %tobool7.i.i, label %if.then8.i.i, label %if.else.i.i

if.then8.i.i:                                     ; preds = %if.then.i.i
  %call9.i.i = call i32 @gettimeofday(ptr noundef nonnull %_now.i.i, ptr noundef null) #16
  %call10.i.i = tail call i32 @qemu_get_thread_id() #16
  %4 = load i64, ptr %_now.i.i, align 8
  %tv_usec.i.i = getelementptr inbounds nuw i8, ptr %_now.i.i, i64 8
  %5 = load i64, ptr %tv_usec.i.i, align 8
  tail call void (ptr, ...) @qemu_log(ptr noundef nonnull @.str.48, i32 noundef %call10.i.i, i64 noundef %4, i64 noundef %5, i64 noundef %client_addr, ptr noundef %call1) #16
  br label %trace_postcopy_wake_shared.exit

if.else.i.i:                                      ; preds = %if.then.i.i
  tail call void (ptr, ...) @qemu_log(ptr noundef nonnull @.str.49, i64 noundef %client_addr, ptr noundef %call1) #16
  br label %trace_postcopy_wake_shared.exit

trace_postcopy_wake_shared.exit:                  ; preds = %entry, %land.lhs.true5.i.i, %if.then8.i.i, %if.else.i.i
  call void @llvm.lifetime.end.p0(i64 16, ptr nonnull %_now.i.i)
  %sub = sub i64 0, %call
  %and = and i64 %client_addr, %sub
  store i64 %and, ptr %range, align 8
  %len = getelementptr inbounds nuw i8, ptr %range, i64 8
  store i64 %call, ptr %len, align 8
  %6 = load i32, ptr %pcfd, align 8
  %call2 = call i32 (i32, i64, ...) @ioctl(i32 noundef %6, i64 noundef 2148575746, ptr noundef nonnull %range) #16
  %tobool.not = icmp eq i32 %call2, 0
  br i1 %tobool.not, label %if.end, label %if.then

if.then:                                          ; preds = %trace_postcopy_wake_shared.exit
  %call3 = call ptr @qemu_ram_get_idstr(ptr noundef %rb) #16
  %call4 = tail call ptr @__errno_location() #18
  %7 = load i32, ptr %call4, align 4
  %call5 = call ptr @strerror(i32 noundef %7) #16
  call void (ptr, ...) @error_report(ptr noundef nonnull @.str.10, ptr noundef nonnull @__func__.postcopy_wake_shared, i64 noundef %client_addr, ptr noundef %call3, ptr noundef %call5) #16
  br label %if.end

if.end:                                           ; preds = %if.then, %trace_postcopy_wake_shared.exit
  ret i32 %call2
}